; Function Attrs: mustprogress nofree norecurse nosync nounwind willreturn memory(readwrite, inaccessiblemem: none) uwtable
define noundef zeroext i1 @_ZN12rom_device_t4loadEmmPh(ptr nocapture noundef nonnull readonly align 8 dereferenceable(32) %0, i64 noundef %1, i64 noundef %2, ptr nocapture noundef writeonly %3) unnamed_addr #4 align 2 {
  %5 = add i64 %2, %1
  %6 = getelementptr inbounds i8, ptr %0, i64 8
  %7 = getelementptr inbounds i8, ptr %0, i64 16
  %8 = load ptr, ptr %7, align 8
  %9 = load ptr, ptr %6, align 8
  %10 = ptrtoint ptr %8 to i64
  %11 = ptrtoint ptr %9 to i64
  %12 = sub i64 %10, %11
  %13 = icmp ule i64 %5, %12
  br i1 %13, label %14, label %16

14:                                               ; preds = %4
  %15 = getelementptr inbounds i8, ptr %9, i64 %1
  tail call void @llvm.memcpy.p0.p0.i64(ptr align 1 %3, ptr nonnull align 1 %15, i64 %2, i1 false)
  br label %16

16:                                               ; preds = %4, %14
  ret i1 %13
}